; Function Attrs: mustprogress nofree norecurse nosync nounwind willreturn memory(argmem: read) uwtable
define dso_local zeroext i1 @stdin_upload(ptr noundef readonly captures(none) %0) local_unnamed_addr #4 {
sub_0:
  %1 = load i8, ptr %0, align 1
  %.off = add i8 %1, -45
  %switch = icmp ult i8 %.off, 2
  br i1 %switch, label %.tail3.sink.split, label %.tail3

.tail3.sink.split:                                ; preds = %sub_0
  %2 = getelementptr inbounds nuw i8, ptr %0, i64 1
  %3 = load i8, ptr %2, align 1
  %4 = icmp eq i8 %3, 0
  br label %.tail3

.tail3:                                           ; preds = %sub_0, %.tail3.sink.split
  %5 = phi i1 [ false, %sub_0 ], [ %4, %.tail3.sink.split ]
  ret i1 %5
}